target datalayout = "e-m:e-p270:32:32-p271:32:32-p272:64:64-i64:64-i128:128-f80:128-n8:16:32:64-S128"
target triple = "x86_64-pc-linux-gnu"

%struct.mp_cur = type { ptr, i64, i32 }

@.str.6 = private unnamed_addr constant [35 x i8] c"in function mp_decode_to_lua_array\00", align 1

; Function Attrs: nounwind uwtable
define dso_local void @mp_decode_to_lua_array(ptr noundef %0, ptr noundef %1, i64 noundef %2) #0 {
  %4 = alloca ptr, align 8
  %5 = alloca ptr, align 8
  %6 = alloca i64, align 8
  %7 = alloca i32, align 4
  %8 = alloca i32, align 4
  store ptr %0, ptr %4, align 8, !tbaa !17
  store ptr %1, ptr %5, align 8, !tbaa !25
  store i64 %2, ptr %6, align 8, !tbaa !8
  call void @llvm.lifetime.start.p0(i64 4, ptr %7) #6
  store i32 1, ptr %7, align 4, !tbaa !12
  %9 = load ptr, ptr %4, align 8, !tbaa !17
  call void @lua_createtable(ptr noundef %9, i32 noundef 0, i32 noundef 0)
  %10 = load ptr, ptr %4, align 8, !tbaa !17
  call void @luaL_checkstack(ptr noundef %10, i32 noundef 1, ptr noundef @.str.6)
  br label %11

11:                                               ; preds = %27, %3
  %12 = load i64, ptr %6, align 8, !tbaa !8
  %13 = add i64 %12, -1
  store i64 %13, ptr %6, align 8, !tbaa !8
  %14 = icmp ne i64 %12, 0
  br i1 %14, label %15, label %29

15:                                               ; preds = %11
  %16 = load ptr, ptr %4, align 8, !tbaa !17
  %17 = load i32, ptr %7, align 4, !tbaa !12
  %18 = add nsw i32 %17, 1
  store i32 %18, ptr %7, align 4, !tbaa !12
  %19 = sitofp i32 %17 to double
  call void @lua_pushnumber(ptr noundef %16, double noundef %19)
  %20 = load ptr, ptr %4, align 8, !tbaa !17
  %21 = load ptr, ptr %5, align 8, !tbaa !25
  call void @mp_decode_to_lua_type(ptr noundef %20, ptr noundef %21)
  %22 = load ptr, ptr %5, align 8, !tbaa !25
  %23 = getelementptr inbounds nuw %struct.mp_cur, ptr %22, i32 0, i32 2
  %24 = load i32, ptr %23, align 8, !tbaa !30
  %25 = icmp ne i32 %24, 0
  br i1 %25, label %26, label %27

26:                                               ; preds = %15
  store i32 1, ptr %8, align 4
  br label %30

27:                                               ; preds = %15
  %28 = load ptr, ptr %4, align 8, !tbaa !17
  call void @lua_settable(ptr noundef %28, i32 noundef -3)
  br label %11, !llvm.loop !40

29:                                               ; preds = %11
  store i32 0, ptr %8, align 4
  br label %30

30:                                               ; preds = %29, %26
  call void @llvm.lifetime.end.p0(i64 4, ptr %7) #6
  %31 = load i32, ptr %8, align 4
  switch i32 %31, label %33 [
    i32 0, label %32
    i32 1, label %32
  ]

32:                                               ; preds = %30, %30
  ret void

33:                                               ; preds = %30
  unreachable
}