; Function Attrs: nounwind uwtable
define dso_local void @mp_decode_to_lua_array(ptr noundef %0, ptr noundef %1, i64 noundef %2) local_unnamed_addr #2 {
  tail call void @lua_createtable(ptr noundef %0, i32 noundef 0, i32 noundef 0) #10
  tail call void @luaL_checkstack(ptr noundef %0, i32 noundef 1, ptr noundef nonnull @.str.6) #10
  %.not10 = icmp eq i64 %2, 0
  br i1 %.not10, label %._crit_edge, label %.lr.ph

.lr.ph:                                           ; preds = %3
  %4 = getelementptr inbounds nuw i8, ptr %1, i64 16
  br label %5

5:                                                ; preds = %.lr.ph, %8
  %.in = phi i64 [ %2, %.lr.ph ], [ %9, %8 ]
  %.011 = phi i32 [ 1, %.lr.ph ], [ %10, %8 ]
  %6 = uitofp nneg i32 %.011 to double
  tail call void @lua_pushnumber(ptr noundef %0, double noundef %6) #10
  tail call void @mp_decode_to_lua_type(ptr noundef %0, ptr noundef %1)
  %7 = load i32, ptr %4, align 8, !tbaa !21
  %.not9 = icmp eq i32 %7, 0
  br i1 %.not9, label %8, label %._crit_edge

8:                                                ; preds = %5
  %9 = add i64 %.in, -1
  %10 = add nuw nsw i32 %.011, 1
  tail call void @lua_settable(ptr noundef %0, i32 noundef -3) #10
  %.not = icmp eq i64 %9, 0
  br i1 %.not, label %._crit_edge, label %5, !llvm.loop !28

._crit_edge:                                      ; preds = %5, %8, %3
  ret void
}